target datalayout = "e-m:e-p270:32:32-p271:32:32-p272:64:64-i64:64-i128:128-f80:128-n8:16:32:64-S128"
target triple = "x86_64-pc-linux-gnu"

@indexes = internal global [16 x i32] zeroinitializer, align 16

; Function Attrs: nounwind uwtable
define dso_local void @setUnicodeVersionNC(ptr noundef %0) #0 {
  %2 = alloca ptr, align 8
  %3 = alloca i32, align 4
  store ptr %0, ptr %2, align 8, !tbaa !4
  call void @llvm.lifetime.start.p0(i64 4, ptr %3) #9
  %4 = load ptr, ptr %2, align 8, !tbaa !4
  %5 = getelementptr inbounds i8, ptr %4, i64 0
  %6 = load i8, ptr %5, align 1, !tbaa !9
  %7 = zext i8 %6 to i32
  %8 = shl i32 %7, 24
  store i32 %8, ptr %3, align 4, !tbaa !10
  %9 = load ptr, ptr %2, align 8, !tbaa !4
  %10 = getelementptr inbounds i8, ptr %9, i64 1
  %11 = load i8, ptr %10, align 1, !tbaa !9
  %12 = zext i8 %11 to i32
  %13 = shl i32 %12, 16
  %14 = load i32, ptr %3, align 4, !tbaa !10
  %15 = add i32 %14, %13
  store i32 %15, ptr %3, align 4, !tbaa !10
  %16 = load ptr, ptr %2, align 8, !tbaa !4
  %17 = getelementptr inbounds i8, ptr %16, i64 2
  %18 = load i8, ptr %17, align 1, !tbaa !9
  %19 = zext i8 %18 to i32
  %20 = shl i32 %19, 8
  %21 = load i32, ptr %3, align 4, !tbaa !10
  %22 = add i32 %21, %20
  store i32 %22, ptr %3, align 4, !tbaa !10
  %23 = load ptr, ptr %2, align 8, !tbaa !4
  %24 = getelementptr inbounds i8, ptr %23, i64 3
  %25 = load i8, ptr %24, align 1, !tbaa !9
  %26 = zext i8 %25 to i32
  %27 = load i32, ptr %3, align 4, !tbaa !10
  %28 = add i32 %27, %26
  store i32 %28, ptr %3, align 4, !tbaa !10
  %29 = load i32, ptr %3, align 4, !tbaa !10
  store i32 %29, ptr getelementptr inbounds ([16 x i32], ptr @indexes, i64 0, i64 2), align 8, !tbaa !10
  call void @llvm.lifetime.end.p0(i64 4, ptr %3) #9
  ret void
}